; Function Attrs: mustprogress nounwind uwtable
define hidden noundef i32 @_ZN11klassItable35assign_itable_indices_for_interfaceEP13InstanceKlass(ptr nocapture noundef readonly %0) local_unnamed_addr #1 align 2 {
  %2 = getelementptr inbounds i8, ptr %0, i64 400
  %3 = load ptr, ptr %2, align 8
  %4 = load i32, ptr %3, align 8
  %5 = icmp sgt i32 %4, 0
  br i1 %5, label %.lr.ph, label %._crit_edge

.lr.ph:                                           ; preds = %1
  %6 = getelementptr inbounds i8, ptr %3, i64 8
  %wide.trip.count = zext nneg i32 %4 to i64
  br label %7

7:                                                ; preds = %.lr.ph, %_Z35interface_method_needs_itable_indexP6Method.exit.thread
  %indvars.iv = phi i64 [ 0, %.lr.ph ], [ %indvars.iv.next, %_Z35interface_method_needs_itable_indexP6Method.exit.thread ]
  %.015 = phi i32 [ 0, %.lr.ph ], [ %.1, %_Z35interface_method_needs_itable_indexP6Method.exit.thread ]
  %8 = getelementptr inbounds ptr, ptr %6, i64 %indvars.iv
  %9 = load ptr, ptr %8, align 8
  %10 = getelementptr inbounds i8, ptr %9, i64 40
  %.sroa.0.0.copyload.i.i.i = load i32, ptr %10, align 8
  %11 = and i32 %.sroa.0.0.copyload.i.i.i, 8
  %.not.i = icmp eq i32 %11, 0
  br i1 %.not.i, label %12, label %_Z35interface_method_needs_itable_indexP6Method.exit.thread

12:                                               ; preds = %7
  %13 = tail call noundef zeroext i1 @_ZNK6Method14is_initializerEv(ptr noundef nonnull align 8 dereferenceable(88) %9) #14
  br i1 %13, label %_Z35interface_method_needs_itable_indexP6Method.exit.thread, label %_Z35interface_method_needs_itable_indexP6Method.exit

_Z35interface_method_needs_itable_indexP6Method.exit: ; preds = %12
  %.sroa.0.0.copyload.i.i4.i = load i32, ptr %10, align 8
  %14 = and i32 %.sroa.0.0.copyload.i.i4.i, 2
  %.not5.i = icmp eq i32 %14, 0
  br i1 %.not5.i, label %15, label %_Z35interface_method_needs_itable_indexP6Method.exit.thread

15:                                               ; preds = %_Z35interface_method_needs_itable_indexP6Method.exit
  %16 = getelementptr inbounds i8, ptr %9, i64 44
  %17 = load i32, ptr %16, align 4
  %18 = icmp sgt i32 %17, -1
  br i1 %18, label %_Z35interface_method_needs_itable_indexP6Method.exit.thread, label %19

19:                                               ; preds = %15
  tail call void @_ZN6Method16set_itable_indexEi(ptr noundef nonnull align 8 dereferenceable(88) %9, i32 noundef %.015) #14
  %20 = add nsw i32 %.015, 1
  br label %_Z35interface_method_needs_itable_indexP6Method.exit.thread

_Z35interface_method_needs_itable_indexP6Method.exit.thread: ; preds = %12, %7, %_Z35interface_method_needs_itable_indexP6Method.exit, %19, %15
  %.1 = phi i32 [ %.015, %15 ], [ %20, %19 ], [ %.015, %_Z35interface_method_needs_itable_indexP6Method.exit ], [ %.015, %7 ], [ %.015, %12 ]
  %indvars.iv.next = add nuw nsw i64 %indvars.iv, 1
  %exitcond.not = icmp eq i64 %indvars.iv.next, %wide.trip.count
  br i1 %exitcond.not, label %._crit_edge, label %7, !llvm.loop !29

._crit_edge:                                      ; preds = %_Z35interface_method_needs_itable_indexP6Method.exit.thread, %1
  %.0.lcssa = phi i32 [ 0, %1 ], [ %.1, %_Z35interface_method_needs_itable_indexP6Method.exit.thread ]
  ret i32 %.0.lcssa
}